target datalayout = "e-m:e-p270:32:32-p271:32:32-p272:64:64-i64:64-i128:128-f80:128-n8:16:32:64-S128"
target triple = "x86_64-pc-linux-gnu"

@hf_amqp_method_access_request_realm = internal global i32 0, align 4
@hf_amqp_method_access_request_exclusive = internal global i32 0, align 4
@hf_amqp_method_access_request_passive = internal global i32 0, align 4
@hf_amqp_method_access_request_active = internal global i32 0, align 4
@hf_amqp_method_access_request_write = internal global i32 0, align 4
@hf_amqp_method_access_request_read = internal global i32 0, align 4

; Function Attrs: null_pointer_is_valid sspstrong uwtable
define internal i32 @dissect_amqp_0_9_method_access_request(ptr noundef %0, i32 noundef %1, ptr noundef %2) #0 {
  %4 = alloca ptr, align 8
  %5 = alloca i32, align 4
  %6 = alloca ptr, align 8
  store ptr %0, ptr %4, align 8
  store i32 %1, ptr %5, align 4
  store ptr %2, ptr %6, align 8
  %7 = load ptr, ptr %6, align 8
  %8 = load i32, ptr @hf_amqp_method_access_request_realm, align 4
  %9 = load ptr, ptr %4, align 8
  %10 = load i32, ptr %5, align 4
  %11 = add i32 %10, 1
  %12 = load ptr, ptr %4, align 8
  %13 = load i32, ptr %5, align 4
  %14 = call zeroext i8 @tvb_get_uint8(ptr noundef %12, i32 noundef %13)
  %15 = zext i8 %14 to i32
  %16 = call ptr @proto_tree_add_item(ptr noundef %7, i32 noundef %8, ptr noundef %9, i32 noundef %11, i32 noundef %15, i32 noundef 0)
  %17 = load ptr, ptr %4, align 8
  %18 = load i32, ptr %5, align 4
  %19 = call zeroext i8 @tvb_get_uint8(ptr noundef %17, i32 noundef %18)
  %20 = zext i8 %19 to i32
  %21 = add i32 1, %20
  %22 = load i32, ptr %5, align 4
  %23 = add i32 %22, %21
  store i32 %23, ptr %5, align 4
  %24 = load ptr, ptr %6, align 8
  %25 = load i32, ptr @hf_amqp_method_access_request_exclusive, align 4
  %26 = load ptr, ptr %4, align 8
  %27 = load i32, ptr %5, align 4
  %28 = call ptr @proto_tree_add_item(ptr noundef %24, i32 noundef %25, ptr noundef %26, i32 noundef %27, i32 noundef 1, i32 noundef 0)
  %29 = load ptr, ptr %6, align 8
  %30 = load i32, ptr @hf_amqp_method_access_request_passive, align 4
  %31 = load ptr, ptr %4, align 8
  %32 = load i32, ptr %5, align 4
  %33 = call ptr @proto_tree_add_item(ptr noundef %29, i32 noundef %30, ptr noundef %31, i32 noundef %32, i32 noundef 1, i32 noundef 0)
  %34 = load ptr, ptr %6, align 8
  %35 = load i32, ptr @hf_amqp_method_access_request_active, align 4
  %36 = load ptr, ptr %4, align 8
  %37 = load i32, ptr %5, align 4
  %38 = call ptr @proto_tree_add_item(ptr noundef %34, i32 noundef %35, ptr noundef %36, i32 noundef %37, i32 noundef 1, i32 noundef 0)
  %39 = load ptr, ptr %6, align 8
  %40 = load i32, ptr @hf_amqp_method_access_request_write, align 4
  %41 = load ptr, ptr %4, align 8
  %42 = load i32, ptr %5, align 4
  %43 = call ptr @proto_tree_add_item(ptr noundef %39, i32 noundef %40, ptr noundef %41, i32 noundef %42, i32 noundef 1, i32 noundef 0)
  %44 = load ptr, ptr %6, align 8
  %45 = load i32, ptr @hf_amqp_method_access_request_read, align 4
  %46 = load ptr, ptr %4, align 8
  %47 = load i32, ptr %5, align 4
  %48 = call ptr @proto_tree_add_item(ptr noundef %44, i32 noundef %45, ptr noundef %46, i32 noundef %47, i32 noundef 1, i32 noundef 0)
  %49 = load i32, ptr %5, align 4
  ret i32 %49
}