; Function Attrs: null_pointer_is_valid sspstrong uwtable
define internal fastcc void @dissect_amqp_0_9_method_access_request(ptr noundef %0, ptr noundef %1) unnamed_addr #0 {
  %3 = load i32, ptr @hf_amqp_method_access_request_realm, align 4
  %4 = tail call zeroext i8 @tvb_get_uint8(ptr noundef %0, i32 noundef 11)
  %5 = zext i8 %4 to i32
  %6 = tail call ptr @proto_tree_add_item(ptr noundef %1, i32 noundef %3, ptr noundef %0, i32 noundef 12, i32 noundef %5, i32 noundef 0)
  %7 = tail call zeroext i8 @tvb_get_uint8(ptr noundef %0, i32 noundef 11)
  %8 = zext i8 %7 to i32
  %9 = add nuw nsw i32 %8, 12
  %10 = load i32, ptr @hf_amqp_method_access_request_exclusive, align 4
  %11 = tail call ptr @proto_tree_add_item(ptr noundef %1, i32 noundef %10, ptr noundef %0, i32 noundef %9, i32 noundef 1, i32 noundef 0)
  %12 = load i32, ptr @hf_amqp_method_access_request_passive, align 4
  %13 = tail call ptr @proto_tree_add_item(ptr noundef %1, i32 noundef %12, ptr noundef %0, i32 noundef %9, i32 noundef 1, i32 noundef 0)
  %14 = load i32, ptr @hf_amqp_method_access_request_active, align 4
  %15 = tail call ptr @proto_tree_add_item(ptr noundef %1, i32 noundef %14, ptr noundef %0, i32 noundef %9, i32 noundef 1, i32 noundef 0)
  %16 = load i32, ptr @hf_amqp_method_access_request_write, align 4
  %17 = tail call ptr @proto_tree_add_item(ptr noundef %1, i32 noundef %16, ptr noundef %0, i32 noundef %9, i32 noundef 1, i32 noundef 0)
  %18 = load i32, ptr @hf_amqp_method_access_request_read, align 4
  %19 = tail call ptr @proto_tree_add_item(ptr noundef %1, i32 noundef %18, ptr noundef %0, i32 noundef %9, i32 noundef 1, i32 noundef 0)
  ret void
}